Certificate:
    Data:
        Version: 3 (0x2)
        Serial Number: 93 (0x5d)
    Signature Algorithm: sha1WithRSAEncryption
        Issuer: C=US, ST=Pennsylvania, L=Pittsburgh, O=CMU, OU=15-441, CN=15-441 CMU CA/emailAddress=staf-441@cs.cmu.edu
        Validity
            Not Before: Oct  7 17:25:31 2016 GMT
            Not After : Oct  7 17:25:31 2017 GMT
        Subject: C=US, ST=Pennsylvania, L=Pittsburgh, O=grader Corp., OU=grader Organizational Unit, CN=localhost/emailAddress=grader@cmu.edu
        Subject Public Key Info:
            Public Key Algorithm: rsaEncryption
                Public-Key: (4096 bit)
                Modulus:
                    00:af:55:e4:88:fa:f1:e8:b5:ed:0f:5c:3d:61:06:
                    9b:ce:4d:b7:13:a2:00:f1:c9:81:a4:0c:58:b5:39:
                    3a:62:bb:ab:ae:6c:7c:41:e7:93:3c:ca:7d:d8:89:
                    9b:22:b3:3b:27:ea:b1:ac:5e:23:a2:9d:09:11:8e:
                    a4:0a:a8:e2:98:16:3a:ad:4f:13:53:55:cd:ed:41:
                    1f:c5:07:32:fc:d3:85:55:95:37:f6:8c:9e:65:6a:
                    da:d5:f6:99:59:1d:4c:72:7b:cd:60:95:86:a3:98:
                    83:8a:ed:e4:10:2a:01:87:3f:af:7e:bd:6e:40:09:
                    1c:c8:dd:53:8f:89:c5:03:3c:dd:0e:61:05:d2:83:
                    ce:88:53:50:95:ce:cb:b1:5e:41:ea:9f:97:bb:19:
                    5f:e0:aa:96:d3:59:84:a1:e2:e8:90:6f:ee:2c:6d:
                    97:7e:03:c7:56:e7:21:ea:3f:74:3d:3e:9e:a9:35:
                    29:30:fa:93:57:f3:67:39:a1:2a:64:51:ac:bf:1d:
                    bc:d5:2d:c3:f6:7a:af:bf:87:82:d3:3a:6f:d6:9a:
                    0b:26:49:d6:9f:42:9b:19:61:a9:10:d1:55:64:c8:
                    73:6b:94:6b:35:b6:94:7c:da:7a:8f:cb:b0:c2:9a:
                    af:7d:6b:10:01:53:ad:25:68:17:d2:25:0f:19:47:
                    f2:98:93:49:ce:d0:22:2c:36:a7:a9:17:80:f1:a7:
                    f2:3a:3d:2c:a1:41:58:a8:08:f8:18:09:4a:52:f4:
                    d3:6b:0c:b9:a4:1b:84:82:a9:23:5a:65:85:3d:e1:
                    87:cb:bc:f9:2e:5d:2e:54:0d:d1:d5:9f:50:5c:eb:
                    c5:ed:37:78:19:46:b9:a9:24:30:68:81:a0:df:7a:
                    12:e1:09:2e:07:55:3d:80:7c:8f:20:6e:0f:d2:33:
                    86:0c:cc:b4:eb:ed:29:35:56:08:ec:5b:7e:19:1c:
                    4e:d0:36:0d:42:df:12:3d:2b:f4:30:b7:45:2b:cb:
                    cb:e6:af:ce:bf:6c:9c:ab:e2:67:1f:98:bb:e6:8a:
                    ce:ec:d3:b9:b6:82:ef:43:b9:7f:15:28:da:d3:9d:
                    3a:47:8e:e9:68:e5:e9:23:8c:fd:81:5e:e3:29:aa:
                    37:06:b7:be:56:74:08:48:d1:db:ee:c5:b3:78:c3:
                    e7:f8:a1:87:33:2e:63:fe:9b:ce:81:4e:57:16:88:
                    12:57:0a:e7:c7:18:2c:ba:dd:40:d2:02:4d:55:bd:
                    73:34:fb:e4:08:f0:07:60:9f:84:f4:90:f2:cd:d3:
                    d7:72:ae:df:36:12:a6:b3:22:ef:41:48:00:83:87:
                    2d:9b:df:a8:8d:90:96:d3:b4:7c:8a:79:2f:5a:7a:
                    77:6f:91
                Exponent: 65537 (0x10001)
        X509v3 extensions:
            X509v3 Basic Constraints: 
                CA:FALSE
            Netscape Comment: 
                15-441 CMU CA OpenSSL Generated Certificate
            X509v3 Subject Key Identifier: 
                59:30:60:12:A0:B7:40:84:A3:83:5D:BC:7B:8B:DF:63:33:82:77:10
            X509v3 Authority Key Identifier: 
                keyid:88:A4:AA:5C:48:64:CD:34:1B:FD:9F:69:F6:43:49:25:A4:52:C2:E1

    Signature Algorithm: sha1WithRSAEncryption
         a7:1d:99:ee:d7:7b:d0:24:40:02:7f:68:ab:06:f5:ad:51:5f:
         ec:d5:f7:40:3b:77:44:5b:c4:11:d4:37:d2:4e:ca:6f:0f:51:
         4f:5f:8c:33:a5:af:d2:cb:08:c3:62:b8:42:01:8f:f5:6c:b2:
         34:b6:3c:77:bc:b5:4d:15:29:72:1f:c8:37:c9:51:92:f7:c6:
         8b:03:90:88:c6:08:22:b0:01:9e:18:12:1f:a7:ed:54:d2:95:
         2f:44:97:ba:07:81:d3:55:ae:57:0a:91:08:94:ed:56:95:e4:
         1d:72:bf:4b:5d:98:83:79:41:44:4e:c5:ba:8e:3a:f4:80:c8:
         76:54:27:bc:c5:4d:01:f7:f6:b9:91:f1:e7:3f:b8:b9:cd:ea:
         95:dc:fe:94:0a:d5:7f:cb:20:62:56:22:c7:1e:a1:ac:95:19:
         90:36:e0:6a:b1:71:3d:e0:a7:72:ea:77:48:85:5e:1d:97:46:
         a6:71:a1:a4:d5:69:77:a9:23:87:69:f1:8c:03:31:54:ff:c8:
         5f:47:34:93:19:11:cb:e5:91:11:c7:54:be:99:0b:0d:3e:04:
         25:8e:b5:95:52:f7:be:70:e8:8c:7a:61:ec:76:1f:47:bb:50:
         9e:b1:80:05:c4:b9:82:68:4c:ea:55:85:0d:87:83:d3:73:85:
         4e:36:4e:5a:41:5b:9f:6a:1b:bd:92:5e:62:1a:81:48:59:42:
         aa:45:6d:00:82:2a:1d:23:f2:54:d4:c8:c0:0a:04:46:7f:ba:
         e2:36:8c:01:bf:7d:f1:29:f8:5e:9c:7d:7d:ce:5e:a6:72:93:
         b7:03:3c:63:23:27:ed:eb:3e:96:a3:61:eb:f9:10:71:75:18:
         d7:a7:04:34:b1:4a:fb:08:9b:75:4a:7f:a4:79:fb:17:3d:8a:
         02:36:16:72:01:a6:16:61:57:84:ac:94:4a:a9:3f:aa:1b:b2:
         be:24:65:ce:55:2d:b4:f4:bc:7f:90:09:b2:d9:f9:74:6e:59:
         23:39:44:64:f5:2d:50:8f:2a:fd:a9:b3:70:79:a7:bb:75:ef:
         a6:90:6c:14:90:f8:cb:6c:df:b9:59:70:ec:e7:ac:08:74:f5:
         0b:60:06:e8:56:ef:f3:bd:9e:c4:61:f6:1e:e9:56:c0:ce:53:
         83:27:1b:58:70:11:07:e4:b4:10:7f:35:e9:ab:37:05:0d:ed:
         1e:54:6a:51:1a:67:f4:05:88:38:66:9b:83:62:e1:da:ee:e7:
         ab:d7:61:8f:2e:8c:cc:50:dd:9b:34:64:8f:7d:56:7a:28:ca:
         2c:66:65:be:46:d4:72:2c:30:ce:b0:dc:1d:a9:de:4d:a5:f3:
         39:62:6f:13:6e:26:ed:b3
-----BEGIN CERTIFICATE-----
MIIGRDCCBCygAwIBAgIBXTANBgkqhkiG9w0BAQUFADCBlDELMAkGA1UEBhMCVVMx
FTATBgNVBAgTDFBlbm5zeWx2YW5pYTETMBEGA1UEBxMKUGl0dHNidXJnaDEMMAoG
A1UEChMDQ01VMQ8wDQYDVQQLEwYxNS00NDExFjAUBgNVBAMTDTE1LTQ0MSBDTVUg
Q0ExIjAgBgkqhkiG9w0BCQEWE3N0YWYtNDQxQGNzLmNtdS5lZHUwHhcNMTYxMDA3
MTcyNTMxWhcNMTcxMDA3MTcyNTMxWjCBqDELMAkGA1UEBhMCVVMxFTATBgNVBAgT
DFBlbm5zeWx2YW5pYTETMBEGA1UEBxMKUGl0dHNidXJnaDEVMBMGA1UEChMMZ3Jh
ZGVyIENvcnAuMSMwIQYDVQQLExpncmFkZXIgT3JnYW5pemF0aW9uYWwgVW5pdDES
MBAGA1UEAxMJbG9jYWxob3N0MR0wGwYJKoZIhvcNAQkBFg5ncmFkZXJAY211LmVk
dTCCAiIwDQYJKoZIhvcNAQEBBQADggIPADCCAgoCggIBAK9V5Ij68ei17Q9cPWEG
m85NtxOiAPHJgaQMWLU5OmK7q65sfEHnkzzKfdiJmyKzOyfqsaxeI6KdCRGOpAqo
4pgWOq1PE1NVze1BH8UHMvzThVWVN/aMnmVq2tX2mVkdTHJ7zWCVhqOYg4rt5BAq
AYc/r369bkAJHMjdU4+JxQM83Q5hBdKDzohTUJXOy7FeQeqfl7sZX+CqltNZhKHi
6JBv7ixtl34Dx1bnIeo/dD0+nqk1KTD6k1fzZzmhKmRRrL8dvNUtw/Z6r7+HgtM6
b9aaCyZJ1p9CmxlhqRDRVWTIc2uUazW2lHzaeo/LsMKar31rEAFTrSVoF9IlDxlH
8piTSc7QIiw2p6kXgPGn8jo9LKFBWKgI+BgJSlL002sMuaQbhIKpI1plhT3hh8u8
+S5dLlQN0dWfUFzrxe03eBlGuakkMGiBoN96EuEJLgdVPYB8jyBuD9IzhgzMtOvt
KTVWCOxbfhkcTtA2DULfEj0r9DC3RSvLy+avzr9snKviZx+Yu+aKzuzTubaC70O5
fxUo2tOdOkeO6Wjl6SOM/YFe4ymqNwa3vlZ0CEjR2+7Fs3jD5/ihhzMuY/6bzoFO
VxaIElcK58cYLLrdQNICTVW9czT75AjwB2CfhPSQ8s3T13Ku3zYSprMi70FIAIOH
LZvfqI2QltO0fIp5L1p6d2+RAgMBAAGjgYowgYcwCQYDVR0TBAIwADA6BglghkgB
hvhCAQ0ELRYrMTUtNDQxIENNVSBDQSBPcGVuU1NMIEdlbmVyYXRlZCBDZXJ0aWZp
Y2F0ZTAdBgNVHQ4EFgQUWTBgEqC3QISjg128e4vfYzOCdxAwHwYDVR0jBBgwFoAU
iKSqXEhkzTQb/Z9p9kNJJaRSwuEwDQYJKoZIhvcNAQEFBQADggIBAKcdme7Xe9Ak
QAJ/aKsG9a1RX+zV90A7d0RbxBHUN9JOym8PUU9fjDOlr9LLCMNiuEIBj/VssjS2
PHe8tU0VKXIfyDfJUZL3xosDkIjGCCKwAZ4YEh+n7VTSlS9El7oHgdNVrlcKkQiU
7VaV5B1yv0tdmIN5QUROxbqOOvSAyHZUJ7zFTQH39rmR8ec/uLnN6pXc/pQK1X/L
IGJWIsceoayVGZA24GqxcT3gp3Lqd0iFXh2XRqZxoaTVaXepI4dp8YwDMVT/yF9H
NJMZEcvlkRHHVL6ZCw0+BCWOtZVS975w6Ix6Yex2H0e7UJ6xgAXEuYJoTOpVhQ2H
g9NzhU42TlpBW59qG72SXmIagUhZQqpFbQCCKh0j8lTUyMAKBEZ/uuI2jAG/ffEp
+F6cfX3OXqZyk7cDPGMjJ+3rPpajYev5EHF1GNenBDSxSvsIm3VKf6R5+xc9igI2
FnIBphZhV4SslEqpP6obsr4kZc5VLbT0vH+QCbLZ+XRuWSM5RGT1LVCPKv2ps3B5
p7t176aQbBSQ+Mts37lZcOznrAh09QtgBuhW7/O9nsRh9h7pVsDOU4MnG1hwEQfk
tBB/NemrNwUN7R5UalEaZ/QFiDhmm4Ni4dru56vXYY8ujMxQ3Zs0ZI99Vnooyixm
Zb5G1HIsMM6w3B2p3k2l8zlibxNuJu2z
-----END CERTIFICATE-----
